; Function Attrs: mustprogress noinline uwtable
define hidden noundef ptr @_ZN6google8protobuf5Arena18CreateMaybeMessageIN17opencv_tensorflow16TensorShapeProtoEJEEEPT_PS1_DpOT0_(ptr noundef %0) local_unnamed_addr #12 align 2 personality ptr @__gxx_personality_v0 {
  %2 = icmp eq ptr %0, null
  br i1 %2, label %_ZN6google8protobuf5Arena14InternalHelperIN17opencv_tensorflow16TensorShapeProtoEE3NewEv.exit, label %7

_ZN6google8protobuf5Arena14InternalHelperIN17opencv_tensorflow16TensorShapeProtoEE3NewEv.exit: ; preds = %1
  %3 = tail call noalias noundef nonnull dereferenceable(48) ptr @_Znwm(i64 noundef 48) #21
  %4 = getelementptr inbounds nuw i8, ptr %3, i64 8
  store i64 0, ptr %4, align 8, !tbaa !3
  store ptr getelementptr inbounds nuw inrange(-16, 152) (i8, ptr @_ZTVN17opencv_tensorflow16TensorShapeProtoE, i64 16), ptr %3, align 8, !tbaa !8
  %5 = getelementptr inbounds nuw i8, ptr %3, i64 16
  %6 = getelementptr inbounds nuw i8, ptr %3, i64 44
  store i32 0, ptr %6, align 4, !tbaa !10
  tail call void @llvm.memset.p0.i64(ptr noundef nonnull align 8 dereferenceable(25) %5, i8 0, i64 25, i1 false)
  br label %_ZN6google8protobuf5Arena21CreateMessageInternalIN17opencv_tensorflow16TensorShapeProtoEEEPT_PS1_.exit

7:                                                ; preds = %1
  %8 = tail call noundef ptr @_ZN6google8protobuf5Arena23AllocateAlignedWithHookEmPKSt9type_info(ptr noundef nonnull align 8 dereferenceable(32) %0, i64 noundef 48, ptr noundef nonnull @_ZTIN17opencv_tensorflow16TensorShapeProtoE)
  %9 = getelementptr inbounds nuw i8, ptr %8, i64 8
  %10 = ptrtoint ptr %0 to i64
  store i64 %10, ptr %9, align 8, !tbaa !3
  store ptr getelementptr inbounds nuw inrange(-16, 152) (i8, ptr @_ZTVN17opencv_tensorflow16TensorShapeProtoE, i64 16), ptr %8, align 8, !tbaa !8
  %11 = getelementptr inbounds nuw i8, ptr %8, i64 16
  store ptr %0, ptr %11, align 8, !tbaa !54
  %12 = getelementptr inbounds nuw i8, ptr %8, i64 24
  %13 = getelementptr inbounds nuw i8, ptr %8, i64 44
  store i32 0, ptr %13, align 4, !tbaa !10
  tail call void @llvm.memset.p0.i64(ptr noundef nonnull align 8 dereferenceable(17) %12, i8 0, i64 17, i1 false)
  br label %_ZN6google8protobuf5Arena21CreateMessageInternalIN17opencv_tensorflow16TensorShapeProtoEEEPT_PS1_.exit

_ZN6google8protobuf5Arena21CreateMessageInternalIN17opencv_tensorflow16TensorShapeProtoEEEPT_PS1_.exit: ; preds = %_ZN6google8protobuf5Arena14InternalHelperIN17opencv_tensorflow16TensorShapeProtoEE3NewEv.exit, %7
  %.0.i = phi ptr [ %3, %_ZN6google8protobuf5Arena14InternalHelperIN17opencv_tensorflow16TensorShapeProtoEE3NewEv.exit ], [ %8, %7 ]
  ret ptr %.0.i
}